; Function Attrs: mustprogress nofree norecurse nosync nounwind willreturn memory(read, inaccessiblemem: none) uwtable
define dso_local noundef ptr @_ZN6bParse5bFile14findLibPointerEPv(ptr noundef nonnull readonly align 8 captures(none) dereferenceable(540) %0, ptr noundef %1) local_unnamed_addr #23 align 2 {
  %3 = ptrtoint ptr %1 to i64
  %.sroa.0.0.extract.trunc = trunc i64 %3 to i32
  %.sroa.0.4.extract.shift = lshr i64 %3, 32
  %.sroa.0.4.extract.trunc = trunc nuw i64 %.sroa.0.4.extract.shift to i32
  %4 = add nsw i32 %.sroa.0.4.extract.trunc, %.sroa.0.0.extract.trunc
  %5 = shl i32 %4, 15
  %6 = xor i32 %5, -1
  %7 = add nsw i32 %4, %6
  %8 = ashr i32 %7, 10
  %9 = xor i32 %8, %7
  %10 = mul i32 %9, 9
  %11 = ashr i32 %10, 6
  %12 = xor i32 %11, %10
  %13 = shl i32 %12, 11
  %14 = xor i32 %13, -1
  %15 = add nsw i32 %12, %14
  %16 = ashr i32 %15, 16
  %17 = xor i32 %16, %15
  %18 = getelementptr inbounds nuw i8, ptr %0, i64 104
  %19 = load i32, ptr %18, align 8, !tbaa !42
  %20 = add nsw i32 %19, -1
  %21 = and i32 %20, %17
  %22 = getelementptr inbounds nuw i8, ptr %0, i64 36
  %23 = load i32, ptr %22, align 4, !tbaa !37
  %.not.i.i = icmp ult i32 %21, %23
  br i1 %.not.i.i, label %24, label %_ZN9b3HashMapI9b3HashPtrPN6bParse13bStructHandleEE4findERKS0_.exit.thread

24:                                               ; preds = %2
  %25 = getelementptr inbounds nuw i8, ptr %0, i64 48
  %26 = load ptr, ptr %25, align 8, !tbaa !36
  %27 = sext i32 %21 to i64
  %28 = getelementptr inbounds i32, ptr %26, i64 %27
  %.012.i.i = load i32, ptr %28, align 4, !tbaa !76
  %.not1113.i.i = icmp eq i32 %.012.i.i, -1
  br i1 %.not1113.i.i, label %_ZN9b3HashMapI9b3HashPtrPN6bParse13bStructHandleEE4findERKS0_.exit.thread, label %.lr.ph.i.i

.lr.ph.i.i:                                       ; preds = %24
  %29 = getelementptr inbounds nuw i8, ptr %0, i64 144
  %30 = load ptr, ptr %29, align 8, !tbaa !44
  %31 = getelementptr inbounds nuw i8, ptr %0, i64 80
  %32 = load ptr, ptr %31, align 8
  br label %33

33:                                               ; preds = %38, %.lr.ph.i.i
  %.014.i.i = phi i32 [ %.012.i.i, %.lr.ph.i.i ], [ %.0.i.i, %38 ]
  %34 = sext i32 %.014.i.i to i64
  %35 = getelementptr inbounds %class.b3HashPtr, ptr %30, i64 %34
  %36 = load ptr, ptr %35, align 8, !tbaa !4
  %37 = icmp eq ptr %1, %36
  br i1 %37, label %_ZN9b3HashMapI9b3HashPtrPN6bParse13bStructHandleEE4findERKS0_.exit, label %38

38:                                               ; preds = %33
  %39 = getelementptr inbounds i32, ptr %32, i64 %34
  %.0.i.i = load i32, ptr %39, align 4, !tbaa !76
  %.not11.i.i = icmp eq i32 %.0.i.i, -1
  br i1 %.not11.i.i, label %_ZN9b3HashMapI9b3HashPtrPN6bParse13bStructHandleEE4findERKS0_.exit.thread, label %33, !llvm.loop !77

_ZN9b3HashMapI9b3HashPtrPN6bParse13bStructHandleEE4findERKS0_.exit: ; preds = %33
  %40 = getelementptr inbounds nuw i8, ptr %0, i64 112
  %41 = load ptr, ptr %40, align 8, !tbaa !40
  %.not = icmp eq ptr %41, null
  br i1 %.not, label %_ZN9b3HashMapI9b3HashPtrPN6bParse13bStructHandleEE4findERKS0_.exit.thread, label %42

42:                                               ; preds = %_ZN9b3HashMapI9b3HashPtrPN6bParse13bStructHandleEE4findERKS0_.exit
  %43 = getelementptr inbounds ptr, ptr %41, i64 %34
  %44 = load ptr, ptr %43, align 8, !tbaa !78
  br label %_ZN9b3HashMapI9b3HashPtrPN6bParse13bStructHandleEE4findERKS0_.exit.thread

_ZN9b3HashMapI9b3HashPtrPN6bParse13bStructHandleEE4findERKS0_.exit.thread: ; preds = %38, %24, %2, %_ZN9b3HashMapI9b3HashPtrPN6bParse13bStructHandleEE4findERKS0_.exit, %42
  %.0 = phi ptr [ %44, %42 ], [ null, %_ZN9b3HashMapI9b3HashPtrPN6bParse13bStructHandleEE4findERKS0_.exit ], [ null, %2 ], [ null, %24 ], [ null, %38 ]
  ret ptr %.0
}